target datalayout = "e-m:e-p270:32:32-p271:32:32-p272:64:64-i64:64-i128:128-f80:128-n8:16:32:64-S128"
target triple = "x86_64-pc-linux-gnu"

%struct.PJconsts = type { ptr, ptr, ptr, ptr, ptr, ptr, ptr, ptr, ptr, ptr, ptr, ptr, i32, ptr, ptr, ptr, ptr, ptr, ptr, ptr, ptr, double, double, double, double, double, double, double, double, double, double, double, double, double, double, double, double, double, double, double, double, double, double, i32, i32, i32, i32, i32, i32, i32, i32, i32, i32, i32, ptr, ptr, ptr, ptr, ptr, ptr, double, double, double, double, double, double, double, double, double, double, double, i32, [7 x double], i32, ptr, ptr, double, double, i32, [4 x i8], %"class.std::shared_ptr", i8, double, i8, %"class.std::__cxx11::basic_string", %"class.std::__cxx11::basic_string", %"class.std::__cxx11::basic_string", i8, %"class.std::vector", i32, %"class.std::vector.3", i32, i8, i8, i8, ptr }
%"class.std::shared_ptr" = type { %"class.std::__shared_ptr" }
%"class.std::__shared_ptr" = type { ptr, %"class.std::__shared_count" }
%"class.std::__shared_count" = type { ptr }
%"class.std::__cxx11::basic_string" = type { %"struct.std::__cxx11::basic_string<char>::_Alloc_hider", i64, %union.anon }
%"struct.std::__cxx11::basic_string<char>::_Alloc_hider" = type { ptr }
%union.anon = type { i64, [8 x i8] }
%"class.std::vector" = type { %"struct.std::_Vector_base" }
%"struct.std::_Vector_base" = type { %"struct.std::_Vector_base<osgeo::proj::operation::GridDescription, std::allocator<osgeo::proj::operation::GridDescription>>::_Vector_impl" }
%"struct.std::_Vector_base<osgeo::proj::operation::GridDescription, std::allocator<osgeo::proj::operation::GridDescription>>::_Vector_impl" = type { %"struct.std::_Vector_base<osgeo::proj::operation::GridDescription, std::allocator<osgeo::proj::operation::GridDescription>>::_Vector_impl_data" }
%"struct.std::_Vector_base<osgeo::proj::operation::GridDescription, std::allocator<osgeo::proj::operation::GridDescription>>::_Vector_impl_data" = type { ptr, ptr, ptr }
%"class.std::vector.3" = type { %"struct.std::_Vector_base.4" }
%"struct.std::_Vector_base.4" = type { %"struct.std::_Vector_base<PJCoordOperation, std::allocator<PJCoordOperation>>::_Vector_impl" }
%"struct.std::_Vector_base<PJCoordOperation, std::allocator<PJCoordOperation>>::_Vector_impl" = type { %"struct.std::_Vector_base<PJCoordOperation, std::allocator<PJCoordOperation>>::_Vector_impl_data" }
%"struct.std::_Vector_base<PJCoordOperation, std::allocator<PJCoordOperation>>::_Vector_impl_data" = type { ptr, ptr, ptr }
%"struct.(anonymous namespace)::pj_aeqd_data" = type { double, double, ptr, double, double, double, double, double, i32, %struct.geod_geodesic }
%struct.geod_geodesic = type { double, double, double, double, double, double, double, double, double, [6 x double], [15 x double], [21 x double] }
%struct.PJ_LP = type { double, double }
%struct.PJ_XY = type { double, double }

; Function Attrs: mustprogress uwtable
define internal { double, double } @_ZL10e_guam_inv5PJ_XYP8PJconsts(double %0, double %1, ptr noundef %2) #0 {
  %4 = alloca %struct.PJ_LP, align 8
  %5 = alloca %struct.PJ_XY, align 8
  %6 = alloca ptr, align 8
  %7 = alloca ptr, align 8
  %8 = alloca double, align 8
  %9 = alloca double, align 8
  %10 = alloca i32, align 4
  %11 = getelementptr inbounds nuw { double, double }, ptr %5, i32 0, i32 0
  store double %0, ptr %11, align 8
  %12 = getelementptr inbounds nuw { double, double }, ptr %5, i32 0, i32 1
  store double %1, ptr %12, align 8
  store ptr %2, ptr %6, align 8, !tbaa !3
  call void @llvm.memset.p0.i64(ptr align 8 %4, i8 0, i64 16, i1 false)
  call void @llvm.lifetime.start.p0(i64 8, ptr %7) #8
  %13 = load ptr, ptr %6, align 8, !tbaa !3
  %14 = getelementptr inbounds nuw %struct.PJconsts, ptr %13, i32 0, i32 11
  %15 = load ptr, ptr %14, align 8, !tbaa !43
  store ptr %15, ptr %7, align 8, !tbaa !41
  call void @llvm.lifetime.start.p0(i64 8, ptr %8) #8
  call void @llvm.lifetime.start.p0(i64 8, ptr %9) #8
  store double 0.000000e+00, ptr %9, align 8, !tbaa !73
  call void @llvm.lifetime.start.p0(i64 4, ptr %10) #8
  %16 = getelementptr inbounds nuw %struct.PJ_XY, ptr %5, i32 0, i32 0
  %17 = load double, ptr %16, align 8, !tbaa !70
  %18 = fmul double 5.000000e-01, %17
  %19 = getelementptr inbounds nuw %struct.PJ_XY, ptr %5, i32 0, i32 0
  %20 = load double, ptr %19, align 8, !tbaa !70
  %21 = fmul double %18, %20
  store double %21, ptr %8, align 8, !tbaa !73
  %22 = load ptr, ptr %6, align 8, !tbaa !3
  %23 = getelementptr inbounds nuw %struct.PJconsts, ptr %22, i32 0, i32 61
  %24 = load double, ptr %23, align 8, !tbaa !46
  %25 = getelementptr inbounds nuw %struct.PJ_LP, ptr %4, i32 0, i32 1
  store double %24, ptr %25, align 8, !tbaa !74
  store i32 0, ptr %10, align 4, !tbaa !54
  br label %26

26:                                               ; preds = %61, %3
  %27 = load i32, ptr %10, align 4, !tbaa !54
  %28 = icmp slt i32 %27, 3
  br i1 %28, label %29, label %64

29:                                               ; preds = %26
  %30 = load ptr, ptr %6, align 8, !tbaa !3
  %31 = getelementptr inbounds nuw %struct.PJconsts, ptr %30, i32 0, i32 26
  %32 = load double, ptr %31, align 8, !tbaa !66
  %33 = getelementptr inbounds nuw %struct.PJ_LP, ptr %4, i32 0, i32 1
  %34 = load double, ptr %33, align 8, !tbaa !74
  %35 = call double @sin(double noundef %34) #8, !tbaa !54
  %36 = fmul double %32, %35
  store double %36, ptr %9, align 8, !tbaa !73
  %37 = load double, ptr %9, align 8, !tbaa !73
  %38 = load double, ptr %9, align 8, !tbaa !73
  %39 = fneg double %37
  %40 = call double @llvm.fmuladd.f64(double %39, double %38, double 1.000000e+00)
  %41 = call double @sqrt(double noundef %40) #8, !tbaa !54
  store double %41, ptr %9, align 8, !tbaa !73
  %42 = load ptr, ptr %7, align 8, !tbaa !41
  %43 = getelementptr inbounds nuw %"struct.(anonymous namespace)::pj_aeqd_data", ptr %42, i32 0, i32 3
  %44 = load double, ptr %43, align 8, !tbaa !63
  %45 = getelementptr inbounds nuw %struct.PJ_XY, ptr %5, i32 0, i32 1
  %46 = load double, ptr %45, align 8, !tbaa !72
  %47 = fadd double %44, %46
  %48 = load double, ptr %8, align 8, !tbaa !73
  %49 = getelementptr inbounds nuw %struct.PJ_LP, ptr %4, i32 0, i32 1
  %50 = load double, ptr %49, align 8, !tbaa !74
  %51 = call double @tan(double noundef %50) #8, !tbaa !54
  %52 = fmul double %48, %51
  %53 = load double, ptr %9, align 8, !tbaa !73
  %54 = fneg double %52
  %55 = call double @llvm.fmuladd.f64(double %54, double %53, double %47)
  %56 = load ptr, ptr %7, align 8, !tbaa !41
  %57 = getelementptr inbounds nuw %"struct.(anonymous namespace)::pj_aeqd_data", ptr %56, i32 0, i32 2
  %58 = load ptr, ptr %57, align 8, !tbaa !59
  %59 = call noundef double @_Z11pj_inv_mlfndPKd(double noundef %55, ptr noundef %58)
  %60 = getelementptr inbounds nuw %struct.PJ_LP, ptr %4, i32 0, i32 1
  store double %59, ptr %60, align 8, !tbaa !74
  br label %61

61:                                               ; preds = %29
  %62 = load i32, ptr %10, align 4, !tbaa !54
  %63 = add nsw i32 %62, 1
  store i32 %63, ptr %10, align 4, !tbaa !54
  br label %26, !llvm.loop !78

64:                                               ; preds = %26
  %65 = getelementptr inbounds nuw %struct.PJ_XY, ptr %5, i32 0, i32 0
  %66 = load double, ptr %65, align 8, !tbaa !70
  %67 = load double, ptr %9, align 8, !tbaa !73
  %68 = fmul double %66, %67
  %69 = getelementptr inbounds nuw %struct.PJ_LP, ptr %4, i32 0, i32 1
  %70 = load double, ptr %69, align 8, !tbaa !74
  %71 = call double @cos(double noundef %70) #8, !tbaa !54
  %72 = fdiv double %68, %71
  %73 = getelementptr inbounds nuw %struct.PJ_LP, ptr %4, i32 0, i32 0
  store double %72, ptr %73, align 8, !tbaa !76
  call void @llvm.lifetime.end.p0(i64 4, ptr %10) #8
  call void @llvm.lifetime.end.p0(i64 8, ptr %9) #8
  call void @llvm.lifetime.end.p0(i64 8, ptr %8) #8
  call void @llvm.lifetime.end.p0(i64 8, ptr %7) #8
  %74 = load { double, double }, ptr %4, align 8
  ret { double, double } %74
}