; Function Attrs: mustprogress uwtable
define internal { double, double } @_ZL10e_guam_inv5PJ_XYP8PJconsts(double %0, double %1, ptr noundef readonly captures(none) %2) #0 {
  %4 = getelementptr inbounds nuw i8, ptr %2, i64 88
  %5 = load ptr, ptr %4, align 8, !tbaa !40
  %6 = fmul double %0, 5.000000e-01
  %7 = fmul double %0, %6
  %8 = getelementptr inbounds nuw i8, ptr %2, i64 448
  %9 = load double, ptr %8, align 8, !tbaa !43
  %10 = getelementptr inbounds nuw i8, ptr %2, i64 208
  %11 = getelementptr inbounds nuw i8, ptr %5, i64 24
  %12 = getelementptr inbounds nuw i8, ptr %5, i64 16
  br label %13

13:                                               ; preds = %3, %13
  %.018 = phi i32 [ 0, %3 ], [ %28, %13 ]
  %.sroa.3.017 = phi double [ %9, %3 ], [ %27, %13 ]
  %14 = load double, ptr %10, align 8, !tbaa !62
  %15 = tail call double @sin(double noundef %.sroa.3.017) #8, !tbaa !50
  %16 = fmul double %14, %15
  %17 = fneg double %16
  %18 = tail call double @llvm.fmuladd.f64(double %17, double %16, double 1.000000e+00)
  %19 = tail call double @sqrt(double noundef %18) #8, !tbaa !50
  %20 = load double, ptr %11, align 8, !tbaa !59
  %21 = fadd double %1, %20
  %22 = tail call double @tan(double noundef %.sroa.3.017) #8, !tbaa !50
  %23 = fneg double %22
  %24 = fmul double %7, %23
  %25 = tail call double @llvm.fmuladd.f64(double %24, double %19, double %21)
  %26 = load ptr, ptr %12, align 8, !tbaa !56
  %27 = tail call noundef double @_Z11pj_inv_mlfndPKd(double noundef %25, ptr noundef %26)
  %28 = add nuw nsw i32 %.018, 1
  %exitcond.not = icmp eq i32 %28, 3
  br i1 %exitcond.not, label %29, label %13, !llvm.loop !66

29:                                               ; preds = %13
  %30 = fmul double %0, %19
  %31 = tail call double @cos(double noundef %27) #8, !tbaa !50
  %32 = fdiv double %30, %31
  %.fca.0.insert = insertvalue { double, double } poison, double %32, 0
  %.fca.1.insert = insertvalue { double, double } %.fca.0.insert, double %27, 1
  ret { double, double } %.fca.1.insert
}